; Function Attrs: nounwind uwtable
define internal noundef i32 @mxf_write_ffv1_desc(ptr noundef readonly captures(none) %0, ptr noundef readonly captures(none) %1) #0 {
  %3 = getelementptr inbounds nuw i8, ptr %1, i64 16
  %4 = load ptr, ptr %3, align 8, !tbaa !48
  %5 = getelementptr inbounds nuw i8, ptr %4, i64 44
  %6 = load i32, ptr %5, align 4, !tbaa !106
  %7 = tail call ptr @av_pix_fmt_desc_get(i32 noundef %6) #14
  %.not = icmp eq ptr %7, null
  br i1 %.not, label %8, label %9

8:                                                ; preds = %2
  tail call void (ptr, i32, ptr, ...) @av_log(ptr noundef null, i32 noundef 0, ptr noundef nonnull @.str.45, ptr noundef nonnull @.str.83, ptr noundef nonnull @.str.47, i32 noundef 1611) #14
  tail call void @abort() #15
  unreachable

9:                                                ; preds = %2
  %10 = getelementptr inbounds nuw i8, ptr %7, i64 16
  %11 = load i64, ptr %10, align 8, !tbaa !268
  %12 = and i64 %11, 32
  %.not9 = icmp eq i64 %12, 0
  %13 = select i1 %.not9, ptr @mxf_cdci_descriptor_key, ptr @mxf_rgba_descriptor_key
  %14 = tail call fastcc i64 @mxf_write_cdci_common(ptr noundef %0, ptr noundef nonnull %1, ptr noundef nonnull %13)
  %15 = getelementptr inbounds nuw i8, ptr %0, i64 32
  %16 = load ptr, ptr %15, align 8, !tbaa !24
  %sext = shl i64 %14, 32
  %17 = ashr exact i64 %sext, 32
  %18 = tail call i64 @avio_seek(ptr noundef %16, i64 noundef 0, i32 noundef 1) #14
  %19 = sub i64 %18, %14
  %20 = trunc i64 %19 to i32
  %21 = add nsw i64 %17, -4
  %22 = tail call i64 @avio_seek(ptr noundef %16, i64 noundef %21, i32 noundef 0) #14
  tail call void @avio_w8(ptr noundef %16, i32 noundef 131) #14
  tail call void @avio_wb24(ptr noundef %16, i32 noundef %20) #14
  %23 = tail call i64 @avio_seek(ptr noundef %16, i64 noundef %18, i32 noundef 0) #14
  %24 = load ptr, ptr %15, align 8, !tbaa !24
  %25 = getelementptr inbounds nuw i8, ptr %1, i64 24
  %26 = load ptr, ptr %25, align 8, !tbaa !33
  tail call void @avio_write(ptr noundef %24, ptr noundef nonnull @mxf_ffv1_subdescriptor_key, i32 noundef 16) #14
  tail call void @avio_w8(ptr noundef %24, i32 noundef 131) #14
  tail call void @avio_wb24(ptr noundef %24, i32 noundef 0) #14
  %27 = tail call i64 @avio_seek(ptr noundef %24, i64 noundef 0, i32 noundef 1) #14
  %28 = getelementptr i8, ptr %0, i64 24
  %.val27.i = load ptr, ptr %28, align 8, !tbaa !4
  %.val28.i = load ptr, ptr %15, align 8, !tbaa !24
  tail call fastcc void @mxf_write_local_tag(ptr %.val27.i, ptr %.val28.i, i32 noundef 16, i32 noundef 15370)
  tail call void @avio_write(ptr noundef %24, ptr noundef nonnull @uuid_base, i32 noundef 10) #14
  tail call void @avio_wb16(ptr noundef %24, i32 noundef 24) #14
  tail call void @avio_wb32(ptr noundef %24, i32 noundef 0) #14
  %29 = load ptr, ptr %3, align 8, !tbaa !48
  %30 = getelementptr inbounds nuw i8, ptr %29, i64 24
  %31 = load i32, ptr %30, align 8, !tbaa !96
  %.not.i = icmp eq i32 %31, 0
  br i1 %.not.i, label %38, label %32

32:                                               ; preds = %9
  %.val25.i = load ptr, ptr %28, align 8, !tbaa !4
  %.val26.i = load ptr, ptr %15, align 8, !tbaa !24
  tail call fastcc void @mxf_write_local_tag(ptr %.val25.i, ptr %.val26.i, i32 noundef %31, i32 noundef 57307)
  %33 = load ptr, ptr %3, align 8, !tbaa !48
  %34 = getelementptr inbounds nuw i8, ptr %33, i64 16
  %35 = load ptr, ptr %34, align 8, !tbaa !95
  %36 = getelementptr inbounds nuw i8, ptr %33, i64 24
  %37 = load i32, ptr %36, align 8, !tbaa !96
  tail call void @avio_write(ptr noundef %24, ptr noundef %35, i32 noundef %37) #14
  br label %38

38:                                               ; preds = %32, %9
  %.val23.i = load ptr, ptr %28, align 8, !tbaa !4
  %.val24.i = load ptr, ptr %15, align 8, !tbaa !24
  tail call fastcc void @mxf_write_local_tag(ptr %.val23.i, ptr %.val24.i, i32 noundef 2, i32 noundef 57306)
  %39 = getelementptr inbounds nuw i8, ptr %26, i64 32
  %40 = load ptr, ptr %39, align 8, !tbaa !68
  %41 = getelementptr inbounds nuw i8, ptr %40, i64 14
  %42 = load i8, ptr %41, align 1, !tbaa !54
  %43 = zext i8 %42 to i32
  tail call void @avio_wb16(ptr noundef %24, i32 noundef %43) #14
  %44 = load ptr, ptr %3, align 8, !tbaa !48
  %45 = getelementptr inbounds nuw i8, ptr %44, i64 24
  %46 = load i32, ptr %45, align 8, !tbaa !96
  %.not21.i = icmp eq i32 %46, 0
  br i1 %.not21.i, label %mxf_write_ffv1_subdesc.exit, label %47

47:                                               ; preds = %38
  %.val.i = load ptr, ptr %28, align 8, !tbaa !4
  %.val22.i = load ptr, ptr %15, align 8, !tbaa !24
  tail call fastcc void @mxf_write_local_tag(ptr %.val.i, ptr %.val22.i, i32 noundef 2, i32 noundef 57305)
  %48 = getelementptr inbounds nuw i8, ptr %26, i64 128
  %49 = load i32, ptr %48, align 8, !tbaa !97
  tail call void @avio_wb16(ptr noundef %24, i32 noundef %49) #14
  br label %mxf_write_ffv1_subdesc.exit

mxf_write_ffv1_subdesc.exit:                      ; preds = %38, %47
  %50 = load ptr, ptr %15, align 8, !tbaa !24
  %51 = tail call i64 @avio_seek(ptr noundef %50, i64 noundef 0, i32 noundef 1) #14
  %52 = sub nsw i64 %51, %27
  %53 = trunc i64 %52 to i32
  %54 = add nsw i64 %27, -4
  %55 = tail call i64 @avio_seek(ptr noundef %50, i64 noundef %54, i32 noundef 0) #14
  tail call void @avio_w8(ptr noundef %50, i32 noundef 131) #14
  tail call void @avio_wb24(ptr noundef %50, i32 noundef %53) #14
  %56 = tail call i64 @avio_seek(ptr noundef %50, i64 noundef %51, i32 noundef 0) #14
  ret i32 0
}